target datalayout = "e-m:e-p270:32:32-p271:32:32-p272:64:64-i64:64-i128:128-f80:128-n8:16:32:64-S128"
target triple = "x86_64-pc-linux-gnu"

%struct.notes_rewrite_cfg = type { ptr, ptr, i32, ptr, ptr, i32, i32 }

; Function Attrs: nounwind uwtable
define dso_local void @finish_copy_notes_for_rewrite(ptr noundef %0, ptr noundef %1, ptr noundef %2) #0 {
  %4 = alloca ptr, align 8
  %5 = alloca ptr, align 8
  %6 = alloca ptr, align 8
  %7 = alloca i32, align 4
  store ptr %0, ptr %4, align 8, !tbaa !4
  store ptr %1, ptr %5, align 8, !tbaa !37
  store ptr %2, ptr %6, align 8, !tbaa !13
  call void @llvm.lifetime.start.p0(i64 4, ptr %7) #8
  store i32 0, ptr %7, align 4, !tbaa !33
  br label %8

8:                                                ; preds = %41, %3
  %9 = load ptr, ptr %5, align 8, !tbaa !37
  %10 = getelementptr inbounds nuw %struct.notes_rewrite_cfg, ptr %9, i32 0, i32 0
  %11 = load ptr, ptr %10, align 8, !tbaa !51
  %12 = load i32, ptr %7, align 4, !tbaa !33
  %13 = sext i32 %12 to i64
  %14 = getelementptr inbounds ptr, ptr %11, i64 %13
  %15 = load ptr, ptr %14, align 8, !tbaa !9
  %16 = icmp ne ptr %15, null
  br i1 %16, label %17, label %44

17:                                               ; preds = %8
  %18 = load ptr, ptr %4, align 8, !tbaa !4
  %19 = load ptr, ptr %5, align 8, !tbaa !37
  %20 = getelementptr inbounds nuw %struct.notes_rewrite_cfg, ptr %19, i32 0, i32 0
  %21 = load ptr, ptr %20, align 8, !tbaa !51
  %22 = load i32, ptr %7, align 4, !tbaa !33
  %23 = sext i32 %22 to i64
  %24 = getelementptr inbounds ptr, ptr %21, i64 %23
  %25 = load ptr, ptr %24, align 8, !tbaa !9
  %26 = load ptr, ptr %6, align 8, !tbaa !13
  call void @commit_notes(ptr noundef %18, ptr noundef %25, ptr noundef %26)
  %27 = load ptr, ptr %5, align 8, !tbaa !37
  %28 = getelementptr inbounds nuw %struct.notes_rewrite_cfg, ptr %27, i32 0, i32 0
  %29 = load ptr, ptr %28, align 8, !tbaa !51
  %30 = load i32, ptr %7, align 4, !tbaa !33
  %31 = sext i32 %30 to i64
  %32 = getelementptr inbounds ptr, ptr %29, i64 %31
  %33 = load ptr, ptr %32, align 8, !tbaa !9
  call void @free_notes(ptr noundef %33)
  %34 = load ptr, ptr %5, align 8, !tbaa !37
  %35 = getelementptr inbounds nuw %struct.notes_rewrite_cfg, ptr %34, i32 0, i32 0
  %36 = load ptr, ptr %35, align 8, !tbaa !51
  %37 = load i32, ptr %7, align 4, !tbaa !33
  %38 = sext i32 %37 to i64
  %39 = getelementptr inbounds ptr, ptr %36, i64 %38
  %40 = load ptr, ptr %39, align 8, !tbaa !9
  call void @free(ptr noundef %40) #8
  br label %41

41:                                               ; preds = %17
  %42 = load i32, ptr %7, align 4, !tbaa !33
  %43 = add nsw i32 %42, 1
  store i32 %43, ptr %7, align 4, !tbaa !33
  br label %8, !llvm.loop !56

44:                                               ; preds = %8
  %45 = load ptr, ptr %5, align 8, !tbaa !37
  %46 = getelementptr inbounds nuw %struct.notes_rewrite_cfg, ptr %45, i32 0, i32 0
  %47 = load ptr, ptr %46, align 8, !tbaa !51
  call void @free(ptr noundef %47) #8
  %48 = load ptr, ptr %5, align 8, !tbaa !37
  call void @free(ptr noundef %48) #8
  call void @llvm.lifetime.end.p0(i64 4, ptr %7) #8
  ret void
}