; Function Attrs: nounwind uwtable
define dso_local void @finish_copy_notes_for_rewrite(ptr noundef %0, ptr noundef captures(none) %1, ptr noundef %2) local_unnamed_addr #0 {
  %4 = load ptr, ptr %1, align 8, !tbaa !39
  %5 = load ptr, ptr %4, align 8, !tbaa !40
  %.not13 = icmp eq ptr %5, null
  br i1 %.not13, label %._crit_edge, label %.lr.ph

.lr.ph:                                           ; preds = %3, %.lr.ph
  %indvars.iv = phi i64 [ %indvars.iv.next, %.lr.ph ], [ 0, %3 ]
  %6 = phi ptr [ %15, %.lr.ph ], [ %5, %3 ]
  tail call void @commit_notes(ptr noundef %0, ptr noundef nonnull %6, ptr noundef %2)
  %7 = load ptr, ptr %1, align 8, !tbaa !39
  %8 = getelementptr inbounds nuw ptr, ptr %7, i64 %indvars.iv
  %9 = load ptr, ptr %8, align 8, !tbaa !40
  tail call void @free_notes(ptr noundef %9) #12
  %10 = load ptr, ptr %1, align 8, !tbaa !39
  %11 = getelementptr inbounds nuw ptr, ptr %10, i64 %indvars.iv
  %12 = load ptr, ptr %11, align 8, !tbaa !40
  tail call void @free(ptr noundef %12) #12
  %indvars.iv.next = add nuw nsw i64 %indvars.iv, 1
  %13 = load ptr, ptr %1, align 8, !tbaa !39
  %14 = getelementptr inbounds nuw ptr, ptr %13, i64 %indvars.iv.next
  %15 = load ptr, ptr %14, align 8, !tbaa !40
  %.not = icmp eq ptr %15, null
  br i1 %.not, label %._crit_edge, label %.lr.ph, !llvm.loop !44

._crit_edge:                                      ; preds = %.lr.ph, %3
  %.lcssa = phi ptr [ %4, %3 ], [ %13, %.lr.ph ]
  tail call void @free(ptr noundef nonnull %.lcssa) #12
  tail call void @free(ptr noundef nonnull %1) #12
  ret void
}